; Function Attrs: nounwind uwtable
define range(i32 -1, 1) i32 @agdelrec(ptr noundef %0, ptr noundef readonly captures(none) %1) local_unnamed_addr #0 {
  %3 = tail call ptr @agraphof(ptr noundef %0) #11
  %4 = getelementptr inbounds nuw i8, ptr %0, i64 16
  %5 = load ptr, ptr %4, align 8, !tbaa !3
  br label %6

6:                                                ; preds = %11, %2
  %.021.i = phi ptr [ %5, %2 ], [ %13, %11 ]
  %.not.i = icmp eq ptr %.021.i, null
  br i1 %.not.i, label %aggetrec.exit, label %7

7:                                                ; preds = %6
  %8 = load ptr, ptr %.021.i, align 8, !tbaa !12
  %9 = tail call i32 @strcmp(ptr noundef nonnull readonly dereferenceable(1) %1, ptr noundef nonnull readonly dereferenceable(1) %8) #10
  %10 = icmp eq i32 %9, 0
  br i1 %10, label %.critedge.i, label %11

11:                                               ; preds = %7
  %12 = getelementptr inbounds nuw i8, ptr %.021.i, i64 8
  %13 = load ptr, ptr %12, align 8, !tbaa !15
  %14 = icmp eq ptr %13, %5
  br i1 %14, label %aggetrec.exit, label %6, !llvm.loop !16

.critedge.i:                                      ; preds = %7
  %15 = load i32, ptr %0, align 8
  %16 = and i32 %15, 4
  %.not23.i = icmp eq i32 %16, 0
  %17 = icmp ne ptr %.021.i, %5
  %or.cond = select i1 %.not23.i, i1 %17, i1 false
  br i1 %or.cond, label %18, label %27

18:                                               ; preds = %.critedge.i
  store ptr %.021.i, ptr %4, align 8, !tbaa !3
  %19 = and i32 %15, 2
  %switch.not.i.i = icmp eq i32 %19, 0
  br i1 %switch.not.i.i, label %27, label %20

20:                                               ; preds = %18
  %21 = and i32 %15, 3
  %22 = icmp eq i32 %21, 3
  %.v.i.i = select i1 %22, i64 -64, i64 64
  %23 = getelementptr inbounds i8, ptr %0, i64 %.v.i.i
  %24 = getelementptr inbounds nuw i8, ptr %23, i64 16
  store ptr %.021.i, ptr %24, align 8, !tbaa !3
  %25 = load i32, ptr %23, align 8
  %26 = and i32 %25, -5
  store i32 %26, ptr %23, align 8
  %.val.pre = load ptr, ptr %4, align 8, !tbaa !3
  br label %27

27:                                               ; preds = %18, %20, %.critedge.i
  %.val = phi ptr [ %.021.i, %18 ], [ %.val.pre, %20 ], [ %5, %.critedge.i ]
  br label %28

28:                                               ; preds = %28, %27
  %.0.i18 = phi ptr [ %.val, %27 ], [ %30, %28 ]
  %29 = getelementptr inbounds nuw i8, ptr %.0.i18, i64 8
  %30 = load ptr, ptr %29, align 8, !tbaa !15
  %.not.i19 = icmp eq ptr %30, %.021.i
  br i1 %.not.i19, label %listdelrec.exit, label %28, !llvm.loop !20

listdelrec.exit:                                  ; preds = %28
  %31 = getelementptr inbounds nuw i8, ptr %.0.i18, i64 8
  %32 = getelementptr inbounds nuw i8, ptr %.021.i, i64 8
  %33 = load ptr, ptr %32, align 8, !tbaa !15
  store ptr %33, ptr %31, align 8, !tbaa !15
  %34 = load i32, ptr %0, align 8
  %35 = and i32 %34, 3
  %switch = icmp eq i32 %35, 0
  br i1 %switch, label %36, label %41

36:                                               ; preds = %listdelrec.exit
  %37 = icmp eq ptr %.val, %.021.i
  br i1 %37, label %38, label %objdelrec.exit

38:                                               ; preds = %36
  %39 = icmp eq ptr %33, %.021.i
  %..i = select i1 %39, ptr null, ptr %33
  store ptr %..i, ptr %4, align 8, !tbaa !3
  %40 = and i32 %34, -8
  store i32 %40, ptr %0, align 8
  br label %objdelrec.exit

41:                                               ; preds = %listdelrec.exit
  %42 = tail call ptr @agroot(ptr noundef %3) #11
  %43 = tail call i32 @agapply(ptr noundef %42, ptr noundef nonnull %0, ptr noundef nonnull @objdelrec, ptr noundef nonnull %.021.i, i32 noundef 0) #11
  br label %objdelrec.exit

objdelrec.exit:                                   ; preds = %38, %36, %41
  %44 = load ptr, ptr %.021.i, align 8, !tbaa !12
  %45 = tail call i32 @agstrfree(ptr noundef %3, ptr noundef %44, i1 noundef zeroext false) #11
  tail call void @free(ptr noundef nonnull %.021.i) #11
  br label %aggetrec.exit

aggetrec.exit:                                    ; preds = %11, %6, %objdelrec.exit
  %.0 = phi i32 [ 0, %objdelrec.exit ], [ -1, %6 ], [ -1, %11 ]
  ret i32 %.0
}